(lp0
(i__main__
Song_data
p1
(dp2
S'name'
p3
S'Like a Rolling Stone'
p4
sS'parameter_dict'
p5
(dp6
S'energy'
p7
F0.478132
sS'tempo'
p8
F84.743
sS'speechiness'
p9
F0.03506
sS'acousticness'
p10
F0.521648
sS'mode'
p11
I1
sS'key'
p12
I7
sS'loudness'
p13
F-12.132
sS'danceability'
p14
F0.508472
ssS'artist'
p15
S'Bob Dylan'
p16
sba(i__main__
Song_data
p17
(dp18
g3
S'Sugar'
p19
sg5
(dp20
S'energy'
p21
F0.748826
sS'tempo'
p22
F120.083
sS'speechiness'
p23
F0.032684
sS'acousticness'
p24
F0.068019
sS'mode'
p25
I1
sS'key'
p26
I1
sS'loudness'
p27
F-7.047
sS'danceability'
p28
F0.745122
ssg15
S'Maroon 5'
p29
sba(i__main__
Song_data
p30
(dp31
g3
S'Love Me Like You Do'
p32
sg5
(dp33
S'energy'
p34
F0.341744
sS'tempo'
p35
F189.426
sS'speechiness'
p36
F0.040381
sS'acousticness'
p37
F0.17174
sS'mode'
p38
I0
sS'key'
p39
I5
sS'loudness'
p40
F-16.963
sS'danceability'
p41
F0.267136
ssg15
S'Ellie Goulding'
p42
sba(i__main__
Song_data
p43
(dp44
g3
S'Style'
p45
sg5
(dp46
S'energy'
p47
F0.785622
sS'tempo'
p48
F95.021
sS'speechiness'
p49
F0.038243
sS'acousticness'
p50
F0.002564
sS'mode'
p51
I1
sS'key'
p52
I2
sS'loudness'
p53
F-5.572
sS'danceability'
p54
F0.598325
ssg15
S'Taylor Swift'
p55
sba(i__main__
Song_data
p56
(dp57
g3
S'Blank Space'
p58
sg5
(dp59
S'energy'
p60
F0.234135
sS'tempo'
p61
F127.296
sS'speechiness'
p62
F0.721087
sS'acousticness'
p63
F0.801472
sS'mode'
p64
I0
sS'key'
p65
I5
sS'loudness'
p66
F-15.064
sS'danceability'
p67
F0.67475
ssg15
S'Taylor Swift'
p68
sba(i__main__
Song_data
p69
(dp70
g3
S'Take Me to Church'
p71
sg5
(dp72
S'energy'
p73
F0.378224
sS'tempo'
p74
F131.231
sS'speechiness'
p75
F0.052653
sS'acousticness'
p76
F0.591168
sS'mode'
p77
I0
sS'key'
p78
I4
sS'loudness'
p79
F-16.111
sS'danceability'
p80
F0.449477
ssg15
S'Hozier'
p81
sba(i__main__
Song_data
p82
(dp83
g3
S'Shut Up And Dance'
p84
sg5
(dp85
S'energy'
p86
F0.48977
sS'tempo'
p87
F128.045
sS'speechiness'
p88
F0.070217
sS'acousticness'
p89
F0.003024
sS'mode'
p90
I1
sS'key'
p91
I1
sS'loudness'
p92
F-16.85
sS'danceability'
p93
F0.485569
ssg15
S'WALK THE MOON'
p94
sba(i__main__
Song_data
p95
(dp96
g3
S'One Last Time'
p97
sg5
(dp98
S'energy'
p99
F0.331302
sS'tempo'
p100
F127.594
sS'speechiness'
p101
F0.04105
sS'acousticness'
p102
F0.096806
sS'mode'
p103
I1
sS'key'
p104
I8
sS'loudness'
p105
F-16.258
sS'danceability'
p106
F0.587542
ssg15
S'Ariana Grande'
p107
sba(i__main__
Song_data
p108
(dp109
g3
S'Chandelier'
p110
sg5
(dp111
S'energy'
p112
F0.951278
sS'tempo'
p113
F128.076
sS'speechiness'
p114
F0.111975
sS'acousticness'
p115
F0.019691
sS'mode'
p116
I0
sS'key'
p117
I10
sS'loudness'
p118
F-4.273
sS'danceability'
p119
F0.492026
ssg15
S'Sia'
p120
sba(i__main__
Song_data
p121
(dp122
g3
S"She Don't Love You"
p123
sg5
(dp124
S'energy'
p125
F0.334764
sS'tempo'
p126
F77.211
sS'speechiness'
p127
F0.029317
sS'acousticness'
p128
F0.356418
sS'mode'
p129
I1
sS'key'
p130
I7
sS'loudness'
p131
F-8.452
sS'danceability'
p132
F0.304436
ssg15
S'Eric Paslay'
p133
sba(i__main__
Song_data
p134
(dp135
g3
S'Under the Bridge'
p136
sg5
(dp137
S'energy'
p138
F0.489692
sS'tempo'
p139
F84.275
sS'speechiness'
p140
F0.045705
sS'acousticness'
p141
F0.016805
sS'mode'
p142
I1
sS'key'
p143
I4
sS'loudness'
p144
F-8.046
sS'danceability'
p145
F0.55443
ssg15
S'Red Hot Chili Peppers'
p146
sba(i__main__
Song_data
p147
(dp148
g3
S'Stay'
p149
sg5
(dp150
S'energy'
p151
F0.195439
sS'tempo'
p152
F111.892
sS'speechiness'
p153
F0.03036
sS'acousticness'
p154
F0.947981
sS'mode'
p155
I0
sS'key'
p156
I9
sS'loudness'
p157
F-16.8
sS'danceability'
p158
F0.629303
ssg15
S'Rihanna'
p159
sba(i__main__
Song_data
p160
(dp161
g3
S'Say Something'
p162
sg5
(dp163
S'energy'
p164
F0.156305
sS'tempo'
p165
F139.997
sS'speechiness'
p166
F0.035548
sS'acousticness'
p167
F0.873707
sS'mode'
p168
I1
sS'key'
p169
I2
sS'loudness'
p170
F-7.543
sS'danceability'
p171
F0.518834
ssg15
S'A Great Big World'
p172
sba.