(lp0
(i__main__
Song_data
p1
(dp2
S'id'
p3
VSONOPPC144C9A903D8
p4
sS'name'
p5
S'Like a Rolling Stone'
p6
sS'parameter_dict'
p7
(dp8
S'energy'
p9
F0.478132
sS'tempo'
p10
F84.743
sS'speechiness'
p11
F0.03506
sS'acousticness'
p12
F0.521648
sS'mode'
p13
I1
sS'key'
p14
I7
sS'loudness'
p15
F-12.132
sS'danceability'
p16
F0.508472
ssS'artist'
p17
S'Bob Dylan'
p18
sba(i__main__
Song_data
p19
(dp20
g5
S'Sugar'
p21
sg3
VSOHCRPX14818D42C20
p22
sg7
(dp23
S'energy'
p24
F0.748826
sS'tempo'
p25
F120.083
sS'speechiness'
p26
F0.032684
sS'acousticness'
p27
F0.068019
sS'mode'
p28
I1
sS'key'
p29
I1
sS'loudness'
p30
F-7.047
sS'danceability'
p31
F0.745122
ssg17
S'Maroon 5'
p32
sba(i__main__
Song_data
p33
(dp34
g3
VSORASYL14AE63AC1E8
p35
sg5
S'Love Me Like You Do'
p36
sg7
(dp37
S'energy'
p38
F0.341744
sS'tempo'
p39
F189.426
sS'speechiness'
p40
F0.040381
sS'acousticness'
p41
F0.17174
sS'mode'
p42
I0
sS'key'
p43
I5
sS'loudness'
p44
F-16.963
sS'danceability'
p45
F0.267136
ssg17
S'Ellie Goulding'
p46
sba(i__main__
Song_data
p47
(dp48
g5
S'Style'
p49
sg3
VSOWHARM14C06562C0D
p50
sg7
(dp51
S'energy'
p52
F0.62802
sS'tempo'
p53
F95.003
sS'speechiness'
p54
F0.043692
sS'acousticness'
p55
F0.002048
sS'mode'
p56
I1
sS'key'
p57
I2
sS'loudness'
p58
F-11.551
sS'danceability'
p59
F0.578051
ssg17
S'Taylor Swift'
p60
sba(i__main__
Song_data
p61
(dp62
g3
VSOMJFJX1498972D17F
p63
sg5
S'Blank Space'
p64
sg7
(dp65
S'energy'
p66
F0.234135
sS'tempo'
p67
F127.296
sS'speechiness'
p68
F0.721087
sS'acousticness'
p69
F0.801472
sS'mode'
p70
I0
sS'key'
p71
I5
sS'loudness'
p72
F-15.064
sS'danceability'
p73
F0.67475
ssg17
S'Taylor Swift'
p74
sba(i__main__
Song_data
p75
(dp76
g5
S'Take Me to Church'
p77
sg3
VSOPUGMY14744C1D82D
p78
sg7
(dp79
S'energy'
p80
F0.54853
sS'tempo'
p81
F128.905
sS'speechiness'
p82
F0.048309
sS'acousticness'
p83
F0.237798
sS'mode'
p84
I1
sS'key'
p85
I7
sS'loudness'
p86
F-7.313
sS'danceability'
p87
F0.548787
ssg17
S'Hozier'
p88
sba(i__main__
Song_data
p89
(dp90
g3
VSOBQZVS14AE12B03D4
p91
sg5
S'Shut Up And Dance'
p92
sg7
(dp93
S'energy'
p94
F0.866591
sS'tempo'
p95
F128.056
sS'speechiness'
p96
F0.064039
sS'acousticness'
p97
F0.00881
sS'mode'
p98
I1
sS'key'
p99
I1
sS'loudness'
p100
F-4.178
sS'danceability'
p101
F0.578159
ssg17
S'WALK THE MOON'
p102
sba(i__main__
Song_data
p103
(dp104
g5
S'One Last Time'
p105
sg3
VSOJSAJW147FA72E3F0
p106
sg7
(dp107
S'energy'
p108
F0.62015
sS'tempo'
p109
F124.995
sS'speechiness'
p110
F0.032749
sS'acousticness'
p111
F0.113929
sS'mode'
p112
I1
sS'key'
p113
I8
sS'loudness'
p114
F-4.866
sS'danceability'
p115
F0.611581
ssg17
S'Ariana Grande'
p116
sba(i__main__
Song_data
p117
(dp118
g3
VSOAJKLS144C3CB7CB2
p119
sg5
S'Chandelier'
p120
sg7
(dp121
S'energy'
p122
F0.743841
sS'tempo'
p123
F117.309
sS'speechiness'
p124
F0.04996
sS'acousticness'
p125
F0.017444
sS'mode'
p126
I1
sS'key'
p127
I1
sS'loudness'
p128
F-4.507
sS'danceability'
p129
F0.407233
ssg17
S'Sia'
p130
sba(i__main__
Song_data
p131
(dp132
g5
S"She Don't Love You"
p133
sg3
VSOAIIWR14405C583D0
p134
sg7
(dp135
S'energy'
p136
F0.334764
sS'tempo'
p137
F77.211
sS'speechiness'
p138
F0.029317
sS'acousticness'
p139
F0.356418
sS'mode'
p140
I1
sS'key'
p141
I7
sS'loudness'
p142
F-8.452
sS'danceability'
p143
F0.304436
ssg17
S'Eric Paslay'
p144
sba(i__main__
Song_data
p145
(dp146
g3
VSOEVSPA13152A71712
p147
sg5
S'Under the Bridge'
p148
sg7
(dp149
S'energy'
p150
F0.418486
sS'tempo'
p151
F80.654
sS'speechiness'
p152
F0.030025
sS'acousticness'
p153
F0.156301
sS'mode'
p154
I1
sS'key'
p155
I4
sS'loudness'
p156
F-10.005
sS'danceability'
p157
F0.297802
ssg17
S'Red Hot Chili Peppers'
p158
sba(i__main__
Song_data
p159
(dp160
g5
S'Stay'
p161
sg3
VSOEDIJN13E908C2BDE
p162
sg7
(dp163
S'energy'
p164
F0.195439
sS'tempo'
p165
F111.892
sS'speechiness'
p166
F0.03036
sS'acousticness'
p167
F0.947981
sS'mode'
p168
I0
sS'key'
p169
I9
sS'loudness'
p170
F-16.8
sS'danceability'
p171
F0.629303
ssg17
S'Rihanna'
p172
sba(i__main__
Song_data
p173
(dp174
g3
VSOPEZBS141215D472B
p175
sg5
S'Say Something'
p176
sg7
(dp177
S'energy'
p178
F0.156305
sS'tempo'
p179
F139.997
sS'speechiness'
p180
F0.035548
sS'acousticness'
p181
F0.873707
sS'mode'
p182
I1
sS'key'
p183
I2
sS'loudness'
p184
F-7.543
sS'danceability'
p185
F0.518834
ssg17
S'A Great Big World'
p186
sba.